(lp0
(S'elfflags'
p1
ccopy_reg
_reconstructor
p2
(cino.utils
SpaceList
p3
c__builtin__
list
p4
(lp5
S'-Os'
p6
aS'-Wl,--gc-sections'
p7
aS'-mmcu=atmega2560'
p8
atp9
Rp10
tp11
a(S'version.txt'
p12
S'/usr/share/arduino/lib/version.txt'
p13
tp14
a(S'used_libs'
p15
(lp16
S'lib/CwPololuSerialServo'
p17
aS'/usr/share/arduino/hardware/arduino/cores/arduino'
p18
atp19
a(S'cc'
p20
S'/usr/bin/avr-gcc'
p21
tp22
a(S'build_dir'
p23
S'.build/mega2560'
p24
tp25
a(S'arduino_core_dir'
p26
g18
tp27
a(S'boards.txt'
p28
S'/usr/share/arduino/hardware/arduino/boards.txt'
p29
tp30
a(S'cxxflags'
p31
g2
(g3
g4
(lp32
S'-fno-exceptions'
p33
atp34
Rp35
tp36
a(S'arduino_variants_dir'
p37
S'/usr/share/arduino/hardware/arduino/variants'
p38
tp39
a(S'deps'
p40
g2
(g3
g4
(lp41
S'.build/mega2560/src/dependencies.d'
p42
aS'.build/mega2560/arduino/dependencies.d'
p43
aS'.build/mega2560/CwPololuSerialServo/dependencies.d'
p44
atp45
Rp46
tp47
a(S'ar'
p48
S'/usr/bin/avr-ar'
p49
tp50
a(S'names'
p51
(dp52
S'cpp'
p53
S'%s.cpp'
p54
sS'obj'
p55
S'%s.o'
p56
sg40
S'%s.d'
p57
sS'lib'
p58
S'lib%s.a'
p59
stp60
a(S'cflags'
p61
g2
(g3
g4
(lp62
g8
aS'-ffunction-sections'
p63
aS'-fdata-sections'
p64
aS'-g'
p65
ag6
aS'-w'
p66
aS'-DF_CPU=16000000L'
p67
aS'-DARDUINO=100'
p68
aS'-I/usr/share/arduino/hardware/arduino/cores/arduino'
p69
aS'-I/usr/share/arduino/hardware/arduino/variants/mega'
p70
aS'-Ilib/CwPololuSerialServo'
p71
aS'-I/usr/share/arduino/hardware/arduino/cores/arduino'
p72
atp73
Rp74
tp75
a(S'arduino_libraries_dir'
p76
S'/usr/share/arduino/libraries'
p77
tp78
a(S'arduino_lib_version'
p79
g2
(cino.environment
Version
p80
c__builtin__
tuple
p81
(I1
I0
tp82
tp83
Rp84
tp85
a(S'objcopy'
p86
S'/usr/bin/avr-objcopy'
p87
tp88
a(S'board_models'
p89
cino.environment
BoardModels
p90
((lp91
(lp92
S'uno'
p93
a(dp94
S'build'
p95
(dp96
S'core'
p97
S'arduino'
p98
sS'mcu'
p99
S'atmega328p'
p100
sS'f_cpu'
p101
S'16000000L'
p102
sS'variant'
p103
S'standard'
p104
ssS'bootloader'
p105
(dp106
S'extended_fuses'
p107
S'0x05'
p108
sS'high_fuses'
p109
S'0xde'
p110
sS'low_fuses'
p111
S'0xff'
p112
sS'lock_bits'
p113
S'0x0F'
p114
sS'file'
p115
S'optiboot_atmega328.hex'
p116
sS'path'
p117
S'optiboot'
p118
sS'unlock_bits'
p119
S'0x3F'
p120
ssS'name'
p121
S'Arduino Uno'
p122
sS'upload'
p123
(dp124
S'speed'
p125
S'115200'
p126
sS'maximum_size'
p127
S'32256'
p128
sS'protocol'
p129
S'arduino'
p130
ssaa(lp131
S'atmega328'
p132
a(dp133
S'build'
p134
(dp135
S'core'
p136
S'arduino'
p137
sS'mcu'
p138
S'atmega328p'
p139
sS'f_cpu'
p140
S'16000000L'
p141
sS'variant'
p142
S'standard'
p143
ssS'bootloader'
p144
(dp145
S'extended_fuses'
p146
S'0x05'
p147
sS'high_fuses'
p148
S'0xDA'
p149
sS'low_fuses'
p150
S'0xFF'
p151
sS'lock_bits'
p152
S'0x0F'
p153
sS'file'
p154
S'ATmegaBOOT_168_atmega328.hex'
p155
sS'path'
p156
S'atmega'
p157
sS'unlock_bits'
p158
S'0x3F'
p159
ssS'name'
p160
S'Arduino Duemilanove w/ ATmega328'
p161
sS'upload'
p162
(dp163
S'speed'
p164
S'57600'
p165
sS'maximum_size'
p166
S'30720'
p167
sS'protocol'
p168
S'arduino'
p169
ssaa(lp170
S'diecimila'
p171
a(dp172
S'build'
p173
(dp174
S'core'
p175
S'arduino'
p176
sS'mcu'
p177
S'atmega168'
p178
sS'f_cpu'
p179
S'16000000L'
p180
sS'variant'
p181
S'standard'
p182
ssS'bootloader'
p183
(dp184
S'extended_fuses'
p185
S'0x00'
p186
sS'high_fuses'
p187
S'0xdd'
p188
sS'low_fuses'
p189
S'0xff'
p190
sS'lock_bits'
p191
S'0x0F'
p192
sS'file'
p193
S'ATmegaBOOT_168_diecimila.hex'
p194
sS'path'
p195
S'atmega'
p196
sS'unlock_bits'
p197
S'0x3F'
p198
ssS'name'
p199
S'Arduino Diecimila or Duemilanove w/ ATmega168'
p200
sS'upload'
p201
(dp202
S'speed'
p203
S'19200'
p204
sS'maximum_size'
p205
S'14336'
p206
sS'protocol'
p207
S'arduino'
p208
ssaa(lp209
S'nano328'
p210
a(dp211
S'build'
p212
(dp213
S'core'
p214
S'arduino'
p215
sS'mcu'
p216
S'atmega328p'
p217
sS'f_cpu'
p218
S'16000000L'
p219
sS'variant'
p220
S'eightanaloginputs'
p221
ssS'bootloader'
p222
(dp223
S'extended_fuses'
p224
S'0x05'
p225
sS'high_fuses'
p226
S'0xDA'
p227
sS'low_fuses'
p228
S'0xFF'
p229
sS'lock_bits'
p230
S'0x0F'
p231
sS'file'
p232
S'ATmegaBOOT_168_atmega328.hex'
p233
sS'path'
p234
S'atmega'
p235
sS'unlock_bits'
p236
S'0x3F'
p237
ssS'name'
p238
S'Arduino Nano w/ ATmega328'
p239
sS'upload'
p240
(dp241
S'speed'
p242
S'57600'
p243
sS'maximum_size'
p244
S'30720'
p245
sS'protocol'
p246
S'arduino'
p247
ssaa(lp248
S'nano'
p249
a(dp250
S'build'
p251
(dp252
S'core'
p253
S'arduino'
p254
sS'mcu'
p255
S'atmega168'
p256
sS'f_cpu'
p257
S'16000000L'
p258
sS'variant'
p259
S'eightanaloginputs'
p260
ssS'bootloader'
p261
(dp262
S'extended_fuses'
p263
S'0x00'
p264
sS'high_fuses'
p265
S'0xdd'
p266
sS'low_fuses'
p267
S'0xff'
p268
sS'lock_bits'
p269
S'0x0F'
p270
sS'file'
p271
S'ATmegaBOOT_168_diecimila.hex'
p272
sS'path'
p273
S'atmega'
p274
sS'unlock_bits'
p275
S'0x3F'
p276
ssS'name'
p277
S'Arduino Nano w/ ATmega168'
p278
sS'upload'
p279
(dp280
S'speed'
p281
S'19200'
p282
sS'maximum_size'
p283
S'14336'
p284
sS'protocol'
p285
S'arduino'
p286
ssaa(lp287
S'mega2560'
p288
a(dp289
S'build'
p290
(dp291
S'core'
p292
S'arduino'
p293
sS'mcu'
p294
S'atmega2560'
p295
sS'f_cpu'
p296
S'16000000L'
p297
sS'variant'
p298
S'mega'
p299
ssS'bootloader'
p300
(dp301
S'extended_fuses'
p302
S'0xFD'
p303
sS'high_fuses'
p304
S'0xD8'
p305
sS'low_fuses'
p306
S'0xFF'
p307
sS'lock_bits'
p308
S'0x0F'
p309
sS'file'
p310
S'stk500boot_v2_mega2560.hex'
p311
sS'path'
p312
S'stk500v2'
p313
sS'unlock_bits'
p314
S'0x3F'
p315
ssS'name'
p316
S'Arduino Mega 2560 or Mega ADK'
p317
sS'upload'
p318
(dp319
S'speed'
p320
S'115200'
p321
sS'maximum_size'
p322
S'258048'
p323
sS'protocol'
p324
S'stk500v2'
p325
ssaa(lp326
S'mega'
p327
a(dp328
S'build'
p329
(dp330
S'core'
p331
S'arduino'
p332
sS'mcu'
p333
S'atmega1280'
p334
sS'f_cpu'
p335
S'16000000L'
p336
sS'variant'
p337
S'mega'
p338
ssS'bootloader'
p339
(dp340
S'extended_fuses'
p341
S'0xF5'
p342
sS'high_fuses'
p343
S'0xDA'
p344
sS'low_fuses'
p345
S'0xFF'
p346
sS'lock_bits'
p347
S'0x0F'
p348
sS'file'
p349
S'ATmegaBOOT_168_atmega1280.hex'
p350
sS'path'
p351
S'atmega'
p352
sS'unlock_bits'
p353
S'0x3F'
p354
ssS'name'
p355
S'Arduino Mega (ATmega1280)'
p356
sS'upload'
p357
(dp358
S'speed'
p359
S'57600'
p360
sS'maximum_size'
p361
S'126976'
p362
sS'protocol'
p363
S'arduino'
p364
ssaa(lp365
S'leonardo'
p366
a(dp367
S'build'
p368
(dp369
S'core'
p370
S'arduino'
p371
sS'f_cpu'
p372
S'16000000L'
p373
sS'vid'
p374
S'0x2341'
p375
sS'pid'
p376
S'0x8036'
p377
sS'variant'
p378
S'leonardo'
p379
sS'mcu'
p380
S'atmega32u4'
p381
ssS'bootloader'
p382
(dp383
S'extended_fuses'
p384
S'0xcb'
p385
sS'high_fuses'
p386
S'0xd8'
p387
sS'low_fuses'
p388
S'0xff'
p389
sS'lock_bits'
p390
S'0x2F'
p391
sS'file'
p392
S'Caterina-Leonardo.hex'
p393
sS'path'
p394
S'caterina'
p395
sS'unlock_bits'
p396
S'0x3F'
p397
ssS'name'
p398
S'Arduino Leonardo'
p399
sS'upload'
p400
(dp401
S'speed'
p402
S'57600'
p403
sS'maximum_size'
p404
S'28672'
p405
sS'protocol'
p406
S'avr109'
p407
sS'disable_flushing'
p408
S'true'
p409
ssaa(lp410
S'mini328'
p411
a(dp412
S'build'
p413
(dp414
S'core'
p415
S'arduino'
p416
sS'mcu'
p417
S'atmega328p'
p418
sS'f_cpu'
p419
S'16000000L'
p420
sS'variant'
p421
S'eightanaloginputs'
p422
ssS'bootloader'
p423
(dp424
S'extended_fuses'
p425
S'0x05'
p426
sS'high_fuses'
p427
S'0xd8'
p428
sS'low_fuses'
p429
S'0xff'
p430
sS'lock_bits'
p431
S'0x0F'
p432
sS'file'
p433
S'optiboot_atmega328-Mini.hex'
p434
sS'path'
p435
S'optiboot'
p436
sS'unlock_bits'
p437
S'0x3F'
p438
ssS'name'
p439
S'Arduino Mini w/ ATmega328'
p440
sS'upload'
p441
(dp442
S'speed'
p443
S'115200'
p444
sS'maximum_size'
p445
S'28672'
p446
sS'protocol'
p447
S'arduino'
p448
ssaa(lp449
S'mini'
p450
a(dp451
S'build'
p452
(dp453
S'core'
p454
S'arduino'
p455
sS'mcu'
p456
S'atmega168'
p457
sS'f_cpu'
p458
S'16000000L'
p459
sS'variant'
p460
S'eightanaloginputs'
p461
ssS'bootloader'
p462
(dp463
S'extended_fuses'
p464
S'0x00'
p465
sS'high_fuses'
p466
S'0xdd'
p467
sS'low_fuses'
p468
S'0xff'
p469
sS'lock_bits'
p470
S'0x0F'
p471
sS'file'
p472
S'ATmegaBOOT_168_ng.hex'
p473
sS'path'
p474
S'atmega'
p475
sS'unlock_bits'
p476
S'0x3F'
p477
ssS'name'
p478
S'Arduino Mini w/ ATmega168'
p479
sS'upload'
p480
(dp481
S'speed'
p482
S'19200'
p483
sS'maximum_size'
p484
S'14336'
p485
sS'protocol'
p486
S'arduino'
p487
ssaa(lp488
S'ethernet'
p489
a(dp490
S'build'
p491
(dp492
S'f_cpu'
p493
S'16000000L'
p494
sS'mcu'
p495
S'atmega328p'
p496
sS'variant'
p497
S'standard'
p498
sS'core'
p499
S'arduino'
p500
ssS'bootloader'
p501
(dp502
S'extended_fuses'
p503
S'0x05'
p504
sS'high_fuses'
p505
S'0xde'
p506
sS'low_fuses'
p507
S'0xff'
p508
sS'lock_bits'
p509
S'0x0F'
p510
sS'file'
p511
S'optiboot_atmega328.hex'
p512
sS'path'
p513
S'optiboot'
p514
sS'unlock_bits'
p515
S'0x3F'
p516
ssS'name'
p517
S'Arduino Ethernet'
p518
sS'upload'
p519
(dp520
S'speed'
p521
S'115200'
p522
sS'maximum_size'
p523
S'32256'
p524
sS'protocol'
p525
S'arduino'
p526
ssaa(lp527
S'fio'
p528
a(dp529
S'build'
p530
(dp531
S'core'
p532
S'arduino'
p533
sS'mcu'
p534
S'atmega328p'
p535
sS'f_cpu'
p536
S'8000000L'
p537
sS'variant'
p538
S'eightanaloginputs'
p539
ssS'bootloader'
p540
(dp541
S'extended_fuses'
p542
S'0x05'
p543
sS'high_fuses'
p544
S'0xDA'
p545
sS'low_fuses'
p546
S'0xFF'
p547
sS'lock_bits'
p548
S'0x0F'
p549
sS'file'
p550
S'ATmegaBOOT_168_atmega328_pro_8MHz.hex'
p551
sS'path'
p552
S'arduino:atmega'
p553
sS'unlock_bits'
p554
S'0x3F'
p555
ssS'name'
p556
S'Arduino Fio'
p557
sS'upload'
p558
(dp559
S'speed'
p560
S'57600'
p561
sS'maximum_size'
p562
S'30720'
p563
sS'protocol'
p564
S'arduino'
p565
ssaa(lp566
S'bt328'
p567
a(dp568
S'build'
p569
(dp570
S'core'
p571
S'arduino'
p572
sS'mcu'
p573
S'atmega328p'
p574
sS'f_cpu'
p575
S'16000000L'
p576
sS'variant'
p577
S'eightanaloginputs'
p578
ssS'bootloader'
p579
(dp580
S'extended_fuses'
p581
S'0x05'
p582
sS'high_fuses'
p583
S'0xd8'
p584
sS'low_fuses'
p585
S'0xff'
p586
sS'lock_bits'
p587
S'0x0F'
p588
sS'file'
p589
S'ATmegaBOOT_168_atmega328_bt.hex'
p590
sS'path'
p591
S'bt'
p592
sS'unlock_bits'
p593
S'0x3F'
p594
ssS'name'
p595
S'Arduino BT w/ ATmega328'
p596
sS'upload'
p597
(dp598
S'speed'
p599
S'19200'
p600
sS'maximum_size'
p601
S'28672'
p602
sS'protocol'
p603
S'arduino'
p604
sS'disable_flushing'
p605
S'true'
p606
ssaa(lp607
S'bt'
p608
a(dp609
S'build'
p610
(dp611
S'core'
p612
S'arduino'
p613
sS'mcu'
p614
S'atmega168'
p615
sS'f_cpu'
p616
S'16000000L'
p617
sS'variant'
p618
S'eightanaloginputs'
p619
ssS'bootloader'
p620
(dp621
S'extended_fuses'
p622
S'0x00'
p623
sS'high_fuses'
p624
S'0xdd'
p625
sS'low_fuses'
p626
S'0xff'
p627
sS'lock_bits'
p628
S'0x0F'
p629
sS'file'
p630
S'ATmegaBOOT_168.hex'
p631
sS'path'
p632
S'bt'
p633
sS'unlock_bits'
p634
S'0x3F'
p635
ssS'name'
p636
S'Arduino BT w/ ATmega168'
p637
sS'upload'
p638
(dp639
S'speed'
p640
S'19200'
p641
sS'maximum_size'
p642
S'14336'
p643
sS'protocol'
p644
S'arduino'
p645
sS'disable_flushing'
p646
S'true'
p647
ssaa(lp648
S'lilypad328'
p649
a(dp650
S'build'
p651
(dp652
S'core'
p653
S'arduino'
p654
sS'mcu'
p655
S'atmega328p'
p656
sS'f_cpu'
p657
S'8000000L'
p658
sS'variant'
p659
S'standard'
p660
ssS'bootloader'
p661
(dp662
S'extended_fuses'
p663
S'0x05'
p664
sS'high_fuses'
p665
S'0xDA'
p666
sS'low_fuses'
p667
S'0xFF'
p668
sS'lock_bits'
p669
S'0x0F'
p670
sS'file'
p671
S'ATmegaBOOT_168_atmega328_pro_8MHz.hex'
p672
sS'path'
p673
S'atmega'
p674
sS'unlock_bits'
p675
S'0x3F'
p676
ssS'name'
p677
S'LilyPad Arduino w/ ATmega328'
p678
sS'upload'
p679
(dp680
S'speed'
p681
S'57600'
p682
sS'maximum_size'
p683
S'30720'
p684
sS'protocol'
p685
S'arduino'
p686
ssaa(lp687
S'lilypad'
p688
a(dp689
S'build'
p690
(dp691
S'core'
p692
S'arduino'
p693
sS'mcu'
p694
S'atmega168'
p695
sS'f_cpu'
p696
S'8000000L'
p697
sS'variant'
p698
S'standard'
p699
ssS'bootloader'
p700
(dp701
S'extended_fuses'
p702
S'0x00'
p703
sS'high_fuses'
p704
S'0xdd'
p705
sS'low_fuses'
p706
S'0xe2'
p707
sS'lock_bits'
p708
S'0x0F'
p709
sS'file'
p710
S'LilyPadBOOT_168.hex'
p711
sS'path'
p712
S'lilypad'
p713
sS'unlock_bits'
p714
S'0x3F'
p715
ssS'name'
p716
S'LilyPad Arduino w/ ATmega168'
p717
sS'upload'
p718
(dp719
S'speed'
p720
S'19200'
p721
sS'maximum_size'
p722
S'14336'
p723
sS'protocol'
p724
S'arduino'
p725
ssaa(lp726
S'pro5v328'
p727
a(dp728
S'build'
p729
(dp730
S'core'
p731
S'arduino'
p732
sS'mcu'
p733
S'atmega328p'
p734
sS'f_cpu'
p735
S'16000000L'
p736
sS'variant'
p737
S'standard'
p738
ssS'bootloader'
p739
(dp740
S'extended_fuses'
p741
S'0x05'
p742
sS'high_fuses'
p743
S'0xDA'
p744
sS'low_fuses'
p745
S'0xFF'
p746
sS'lock_bits'
p747
S'0x0F'
p748
sS'file'
p749
S'ATmegaBOOT_168_atmega328.hex'
p750
sS'path'
p751
S'atmega'
p752
sS'unlock_bits'
p753
S'0x3F'
p754
ssS'name'
p755
S'Arduino Pro or Pro Mini (5V, 16 MHz) w/ ATmega328'
p756
sS'upload'
p757
(dp758
S'speed'
p759
S'57600'
p760
sS'maximum_size'
p761
S'30720'
p762
sS'protocol'
p763
S'arduino'
p764
ssaa(lp765
S'pro5v'
p766
a(dp767
S'build'
p768
(dp769
S'core'
p770
S'arduino'
p771
sS'mcu'
p772
S'atmega168'
p773
sS'f_cpu'
p774
S'16000000L'
p775
sS'variant'
p776
S'standard'
p777
ssS'bootloader'
p778
(dp779
S'extended_fuses'
p780
S'0x00'
p781
sS'high_fuses'
p782
S'0xdd'
p783
sS'low_fuses'
p784
S'0xff'
p785
sS'lock_bits'
p786
S'0x0F'
p787
sS'file'
p788
S'ATmegaBOOT_168_diecimila.hex'
p789
sS'path'
p790
S'atmega'
p791
sS'unlock_bits'
p792
S'0x3F'
p793
ssS'name'
p794
S'Arduino Pro or Pro Mini (5V, 16 MHz) w/ ATmega168'
p795
sS'upload'
p796
(dp797
S'speed'
p798
S'19200'
p799
sS'maximum_size'
p800
S'14336'
p801
sS'protocol'
p802
S'arduino'
p803
ssaa(lp804
S'pro328'
p805
a(dp806
S'build'
p807
(dp808
S'core'
p809
S'arduino'
p810
sS'mcu'
p811
S'atmega328p'
p812
sS'f_cpu'
p813
S'8000000L'
p814
sS'variant'
p815
S'standard'
p816
ssS'bootloader'
p817
(dp818
S'extended_fuses'
p819
S'0x05'
p820
sS'high_fuses'
p821
S'0xDA'
p822
sS'low_fuses'
p823
S'0xFF'
p824
sS'lock_bits'
p825
S'0x0F'
p826
sS'file'
p827
S'ATmegaBOOT_168_atmega328_pro_8MHz.hex'
p828
sS'path'
p829
S'atmega'
p830
sS'unlock_bits'
p831
S'0x3F'
p832
ssS'name'
p833
S'Arduino Pro or Pro Mini (3.3V, 8 MHz) w/ ATmega328'
p834
sS'upload'
p835
(dp836
S'speed'
p837
S'57600'
p838
sS'maximum_size'
p839
S'30720'
p840
sS'protocol'
p841
S'arduino'
p842
ssaa(lp843
S'pro'
p844
a(dp845
S'build'
p846
(dp847
S'core'
p848
S'arduino'
p849
sS'mcu'
p850
S'atmega168'
p851
sS'f_cpu'
p852
S'8000000L'
p853
sS'variant'
p854
S'standard'
p855
ssS'bootloader'
p856
(dp857
S'extended_fuses'
p858
S'0x00'
p859
sS'high_fuses'
p860
S'0xdd'
p861
sS'low_fuses'
p862
S'0xc6'
p863
sS'lock_bits'
p864
S'0x0F'
p865
sS'file'
p866
S'ATmegaBOOT_168_pro_8MHz.hex'
p867
sS'path'
p868
S'atmega'
p869
sS'unlock_bits'
p870
S'0x3F'
p871
ssS'name'
p872
S'Arduino Pro or Pro Mini (3.3V, 8 MHz) w/ ATmega168'
p873
sS'upload'
p874
(dp875
S'speed'
p876
S'19200'
p877
sS'maximum_size'
p878
S'14336'
p879
sS'protocol'
p880
S'arduino'
p881
ssaa(lp882
S'atmega168'
p883
a(dp884
S'build'
p885
(dp886
S'core'
p887
S'arduino'
p888
sS'mcu'
p889
S'atmega168'
p890
sS'f_cpu'
p891
S'16000000L'
p892
sS'variant'
p893
S'standard'
p894
ssS'bootloader'
p895
(dp896
S'extended_fuses'
p897
S'0x00'
p898
sS'high_fuses'
p899
S'0xdd'
p900
sS'low_fuses'
p901
S'0xff'
p902
sS'lock_bits'
p903
S'0x0F'
p904
sS'file'
p905
S'ATmegaBOOT_168_ng.hex'
p906
sS'path'
p907
S'atmega'
p908
sS'unlock_bits'
p909
S'0x3F'
p910
ssS'name'
p911
S'Arduino NG or older w/ ATmega168'
p912
sS'upload'
p913
(dp914
S'speed'
p915
S'19200'
p916
sS'maximum_size'
p917
S'14336'
p918
sS'protocol'
p919
S'arduino'
p920
ssaa(lp921
S'atmega8'
p922
a(dp923
S'build'
p924
(dp925
S'core'
p926
S'arduino'
p927
sS'mcu'
p928
S'atmega8'
p929
sS'f_cpu'
p930
S'16000000L'
p931
sS'variant'
p932
S'standard'
p933
ssS'bootloader'
p934
(dp935
S'high_fuses'
p936
S'0xca'
p937
sS'low_fuses'
p938
S'0xdf'
p939
sS'lock_bits'
p940
S'0x0F'
p941
sS'file'
p942
S'ATmegaBOOT.hex'
p943
sS'path'
p944
S'atmega8'
p945
sS'unlock_bits'
p946
S'0x3F'
p947
ssS'name'
p948
S'Arduino NG or older w/ ATmega8'
p949
sS'upload'
p950
(dp951
S'speed'
p952
S'19200'
p953
sS'maximum_size'
p954
S'7168'
p955
sS'protocol'
p956
S'arduino'
p957
ssaatp958
Rp959
(dp960
S'default'
p961
S'uno'
p962
sbtp963
a(S'cxx'
p964
S'/usr/bin/avr-g++'
p965
tp966
a.